target datalayout = "e-m:e-p270:32:32-p271:32:32-p272:64:64-i64:64-i128:128-f80:128-n8:16:32:64-S128"
target triple = "x86_64-pc-linux-gnu"

%struct.AVCodecContext = type { ptr, i32, i32, ptr, i32, i32, ptr, ptr, ptr, i64, i32, i32, ptr, i32, %struct.AVRational, %struct.AVRational, %struct.AVRational, i32, i32, i32, i32, i32, %struct.AVRational, i32, i32, i32, i32, i32, i32, i32, i32, i32, i32, i32, ptr, ptr, i32, float, float, float, float, float, float, float, float, float, i32, i32, i32, i32, i32, i32, i32, i32, i32, i32, i32, i32, ptr, ptr, ptr, i32, i32, i32, i32, i32, i32, i32, i32, i32, i32, %struct.AVChannelLayout, i32, i32, i32, i32, i32, i32, i32, i32, ptr, i32, i32, i32, float, float, i32, i32, i32, i32, i32, ptr, i64, i64, float, float, i32, i32, ptr, ptr, i32, i32, i32, i32, i32, ptr, ptr, ptr, ptr, i32, i32, [8 x i64], i32, i32, i32, i32, i32, i32, i32, ptr, ptr, i32, i32, i32, i32, i32, i32, i32, i32, i32, i32, ptr, ptr, i32, i32, ptr, ptr, ptr, ptr, i32, i32, i64, i32, i32, i64, ptr, i64, ptr, i32, ptr, i32 }
%struct.AVRational = type { i32, i32 }
%struct.AVChannelLayout = type { i32, i32, %union.anon.0, ptr }
%union.anon.0 = type { i64 }
%struct.FourXContext = type { ptr, %struct.BlockDSPContext, %struct.BswapDSPContext, ptr, ptr, %struct.GetBitContext, %struct.GetBitContext, %struct.GetByteContext, %struct.GetByteContext, [256 x i32], %struct.VLC, i32, [12 x i8], [6 x [64 x i16]], ptr, i32, i32, [100 x %struct.CFrameBuffer] }
%struct.BlockDSPContext = type { ptr, ptr, [2 x ptr] }
%struct.BswapDSPContext = type { ptr, ptr }
%struct.GetBitContext = type { ptr, ptr, i32, i32, i32 }
%struct.GetByteContext = type { ptr, ptr, ptr }
%struct.VLC = type { i32, ptr, i32, i32 }
%struct.CFrameBuffer = type { i32, i32, i32, ptr }

; Function Attrs: cold nounwind optsize uwtable
define internal i32 @decode_end(ptr noundef %0) #0 {
  %2 = alloca ptr, align 8
  %3 = alloca ptr, align 8
  %4 = alloca i32, align 4
  store ptr %0, ptr %2, align 8, !tbaa !4
  call void @llvm.lifetime.start.p0(i64 8, ptr %3) #10
  %5 = load ptr, ptr %2, align 8, !tbaa !4
  %6 = getelementptr inbounds nuw %struct.AVCodecContext, ptr %5, i32 0, i32 6
  %7 = load ptr, ptr %6, align 8, !tbaa !9
  store ptr %7, ptr %3, align 8, !tbaa !29
  call void @llvm.lifetime.start.p0(i64 4, ptr %4) #10
  %8 = load ptr, ptr %3, align 8, !tbaa !29
  %9 = getelementptr inbounds nuw %struct.FourXContext, ptr %8, i32 0, i32 3
  call void @av_freep(ptr noundef %9)
  %10 = load ptr, ptr %3, align 8, !tbaa !29
  %11 = getelementptr inbounds nuw %struct.FourXContext, ptr %10, i32 0, i32 4
  call void @av_freep(ptr noundef %11)
  %12 = load ptr, ptr %3, align 8, !tbaa !29
  %13 = getelementptr inbounds nuw %struct.FourXContext, ptr %12, i32 0, i32 14
  call void @av_freep(ptr noundef %13)
  %14 = load ptr, ptr %3, align 8, !tbaa !29
  %15 = getelementptr inbounds nuw %struct.FourXContext, ptr %14, i32 0, i32 15
  store i32 0, ptr %15, align 8, !tbaa !75
  store i32 0, ptr %4, align 4, !tbaa !35
  br label %16

16:                                               ; preds = %32, %1
  %17 = load i32, ptr %4, align 4, !tbaa !35
  %18 = icmp slt i32 %17, 100
  br i1 %18, label %19, label %35

19:                                               ; preds = %16
  %20 = load ptr, ptr %3, align 8, !tbaa !29
  %21 = getelementptr inbounds nuw %struct.FourXContext, ptr %20, i32 0, i32 17
  %22 = load i32, ptr %4, align 4, !tbaa !35
  %23 = sext i32 %22 to i64
  %24 = getelementptr inbounds [100 x %struct.CFrameBuffer], ptr %21, i64 0, i64 %23
  %25 = getelementptr inbounds nuw %struct.CFrameBuffer, ptr %24, i32 0, i32 3
  call void @av_freep(ptr noundef %25)
  %26 = load ptr, ptr %3, align 8, !tbaa !29
  %27 = getelementptr inbounds nuw %struct.FourXContext, ptr %26, i32 0, i32 17
  %28 = load i32, ptr %4, align 4, !tbaa !35
  %29 = sext i32 %28 to i64
  %30 = getelementptr inbounds [100 x %struct.CFrameBuffer], ptr %27, i64 0, i64 %29
  %31 = getelementptr inbounds nuw %struct.CFrameBuffer, ptr %30, i32 0, i32 0
  store i32 0, ptr %31, align 8, !tbaa !76
  br label %32

32:                                               ; preds = %19
  %33 = load i32, ptr %4, align 4, !tbaa !35
  %34 = add nsw i32 %33, 1
  store i32 %34, ptr %4, align 4, !tbaa !35
  br label %16, !llvm.loop !77

35:                                               ; preds = %16
  %36 = load ptr, ptr %3, align 8, !tbaa !29
  %37 = getelementptr inbounds nuw %struct.FourXContext, ptr %36, i32 0, i32 10
  call void @ff_vlc_free(ptr noundef %37)
  call void @llvm.lifetime.end.p0(i64 4, ptr %4) #10
  call void @llvm.lifetime.end.p0(i64 8, ptr %3) #10
  ret i32 0
}