; Function Attrs: cold nounwind optsize uwtable
define internal noundef i32 @decode_end(ptr noundef readonly captures(none) %0) #0 {
  %2 = getelementptr inbounds nuw i8, ptr %0, i64 32
  %3 = load ptr, ptr %2, align 8, !tbaa !4
  %4 = getelementptr inbounds nuw i8, ptr %3, i64 56
  tail call void @av_freep(ptr noundef nonnull %4) #9
  %5 = getelementptr inbounds nuw i8, ptr %3, i64 64
  tail call void @av_freep(ptr noundef nonnull %5) #9
  %6 = getelementptr inbounds nuw i8, ptr %3, i64 2016
  tail call void @av_freep(ptr noundef nonnull %6) #9
  %7 = getelementptr inbounds nuw i8, ptr %3, i64 2024
  store i32 0, ptr %7, align 8, !tbaa !77
  %8 = getelementptr inbounds nuw i8, ptr %3, i64 2032
  br label %9

9:                                                ; preds = %1, %9
  %indvars.iv = phi i64 [ 0, %1 ], [ %indvars.iv.next, %9 ]
  %10 = getelementptr inbounds nuw [100 x %struct.CFrameBuffer], ptr %8, i64 0, i64 %indvars.iv
  %11 = getelementptr inbounds nuw i8, ptr %10, i64 16
  tail call void @av_freep(ptr noundef nonnull %11) #9
  store i32 0, ptr %10, align 8, !tbaa !78
  %indvars.iv.next = add nuw nsw i64 %indvars.iv, 1
  %exitcond.not = icmp eq i64 %indvars.iv.next, 100
  br i1 %exitcond.not, label %12, label %9, !llvm.loop !79

12:                                               ; preds = %9
  %13 = getelementptr inbounds nuw i8, ptr %3, i64 1208
  tail call void @ff_vlc_free(ptr noundef nonnull %13) #9
  ret i32 0
}